; Function Attrs: mustprogress nofree norecurse nosync nounwind willreturn memory(read, inaccessiblemem: none) uwtable
define dso_local noundef zeroext i1 @_ZNK4llvm7remarks14RemarkStreamer12needsSectionEv(ptr nocapture noundef nonnull readonly align 8 dereferenceable(72) %0) local_unnamed_addr #5 align 2 {
  %2 = load i32, ptr getelementptr inbounds (i8, ptr @_ZL20EnableRemarksSection, i64 128), align 8
  switch i32 %2, label %3 [
    i32 1, label %12
    i32 2, label %.fold.split
  ]

3:                                                ; preds = %1
  %4 = getelementptr inbounds nuw i8, ptr %0, i64 24
  %5 = load ptr, ptr %4, align 8
  %6 = getelementptr inbounds nuw i8, ptr %5, i64 24
  %7 = load i32, ptr %6, align 8
  %.not = icmp eq i32 %7, 0
  br i1 %.not, label %8, label %12

8:                                                ; preds = %3
  %9 = getelementptr inbounds nuw i8, ptr %5, i64 8
  %10 = load i32, ptr %9, align 8
  %11 = and i32 %10, -2
  %switch = icmp eq i32 %11, 2
  br label %12

.fold.split:                                      ; preds = %1
  br label %12

12:                                               ; preds = %1, %.fold.split, %8, %3
  %.0 = phi i1 [ true, %1 ], [ false, %3 ], [ %switch, %8 ], [ false, %.fold.split ]
  ret i1 %.0
}